target datalayout = "e-m:e-p270:32:32-p271:32:32-p272:64:64-i64:64-i128:128-f80:128-n8:16:32:64-S128"
target triple = "x86_64-pc-linux-gnu"

%struct.Curl_cftype = type { ptr, i32, i32, ptr, ptr, ptr, ptr, ptr, ptr, ptr, ptr, ptr, ptr, ptr, ptr }
%struct.Curl_sockaddr_ex = type { i32, i32, i32, i32, %union.anon }
%union.anon = type { %struct.Curl_sockaddr_storage }
%struct.Curl_sockaddr_storage = type { %union.anon.0 }
%union.anon.0 = type { %struct.sockaddr_storage }
%struct.sockaddr_storage = type { i16, [118 x i8], i64 }
%struct.curltime = type { i64, i32 }
%struct.Curl_cfilter = type { ptr, ptr, ptr, ptr, i32, i8 }
%struct.cf_socket_ctx = type { i32, %struct.Curl_sockaddr_ex, i32, %struct.bufq, [46 x i8], i32, [46 x i8], i32, %struct.curltime, %struct.curltime, %struct.curltime, i32, i8 }
%struct.bufq = type { ptr, ptr, ptr, ptr, i64, i64, i64, i32 }

; Function Attrs: nounwind uwtable
define internal i32 @cf_socket_query(ptr noundef %0, ptr noundef %1, i32 noundef %2, ptr noundef %3, ptr noundef %4) #0 {
  %6 = alloca i32, align 4
  %7 = alloca ptr, align 8
  %8 = alloca ptr, align 8
  %9 = alloca i32, align 4
  %10 = alloca ptr, align 8
  %11 = alloca ptr, align 8
  %12 = alloca ptr, align 8
  %13 = alloca i64, align 8
  %14 = alloca ptr, align 8
  store ptr %0, ptr %7, align 8
  store ptr %1, ptr %8, align 8
  store i32 %2, ptr %9, align 4
  store ptr %3, ptr %10, align 8
  store ptr %4, ptr %11, align 8
  %15 = load ptr, ptr %7, align 8
  %16 = getelementptr inbounds %struct.Curl_cfilter, ptr %15, i32 0, i32 2
  %17 = load ptr, ptr %16, align 8
  store ptr %17, ptr %12, align 8
  %18 = load i32, ptr %9, align 4
  switch i32 %18, label %81 [
    i32 3, label %19
    i32 2, label %26
    i32 4, label %59
  ]

19:                                               ; preds = %5
  br label %20

20:                                               ; preds = %19
  br label %21

21:                                               ; preds = %20
  %22 = load ptr, ptr %12, align 8
  %23 = getelementptr inbounds %struct.cf_socket_ctx, ptr %22, i32 0, i32 2
  %24 = load i32, ptr %23, align 8
  %25 = load ptr, ptr %11, align 8
  store i32 %24, ptr %25, align 4
  store i32 0, ptr %6, align 4
  br label %106

26:                                               ; preds = %5
  %27 = load ptr, ptr %12, align 8
  %28 = getelementptr inbounds %struct.cf_socket_ctx, ptr %27, i32 0, i32 12
  %29 = load i8, ptr %28, align 4
  %30 = and i8 %29, 1
  %31 = zext i8 %30 to i32
  %32 = icmp ne i32 %31, 0
  br i1 %32, label %33, label %56

33:                                               ; preds = %26
  %34 = load ptr, ptr %12, align 8
  %35 = getelementptr inbounds %struct.cf_socket_ctx, ptr %34, i32 0, i32 10
  %36 = load ptr, ptr %12, align 8
  %37 = getelementptr inbounds %struct.cf_socket_ctx, ptr %36, i32 0, i32 8
  %38 = getelementptr inbounds { i64, i32 }, ptr %35, i32 0, i32 0
  %39 = load i64, ptr %38, align 8
  %40 = getelementptr inbounds { i64, i32 }, ptr %35, i32 0, i32 1
  %41 = load i32, ptr %40, align 8
  %42 = getelementptr inbounds { i64, i32 }, ptr %37, i32 0, i32 0
  %43 = load i64, ptr %42, align 8
  %44 = getelementptr inbounds { i64, i32 }, ptr %37, i32 0, i32 1
  %45 = load i32, ptr %44, align 8
  %46 = call i64 @Curl_timediff(i64 %39, i32 %41, i64 %43, i32 %45)
  store i64 %46, ptr %13, align 8
  %47 = load i64, ptr %13, align 8
  %48 = icmp slt i64 %47, 2147483647
  br i1 %48, label %49, label %52

49:                                               ; preds = %33
  %50 = load i64, ptr %13, align 8
  %51 = trunc i64 %50 to i32
  br label %53

52:                                               ; preds = %33
  br label %53

53:                                               ; preds = %52, %49
  %54 = phi i32 [ %51, %49 ], [ 2147483647, %52 ]
  %55 = load ptr, ptr %10, align 8
  store i32 %54, ptr %55, align 4
  br label %58

56:                                               ; preds = %26
  %57 = load ptr, ptr %10, align 8
  store i32 -1, ptr %57, align 4
  br label %58

58:                                               ; preds = %56, %53
  store i32 0, ptr %6, align 4
  br label %106

59:                                               ; preds = %5
  %60 = load ptr, ptr %11, align 8
  store ptr %60, ptr %14, align 8
  %61 = load ptr, ptr %12, align 8
  %62 = getelementptr inbounds %struct.cf_socket_ctx, ptr %61, i32 0, i32 0
  %63 = load i32, ptr %62, align 8
  switch i32 %63, label %76 [
    i32 4, label %64
    i32 5, label %64
  ]

64:                                               ; preds = %59, %59
  %65 = load ptr, ptr %12, align 8
  %66 = getelementptr inbounds %struct.cf_socket_ctx, ptr %65, i32 0, i32 12
  %67 = load i8, ptr %66, align 4
  %68 = and i8 %67, 1
  %69 = zext i8 %68 to i32
  %70 = icmp ne i32 %69, 0
  br i1 %70, label %71, label %75

71:                                               ; preds = %64
  %72 = load ptr, ptr %14, align 8
  %73 = load ptr, ptr %12, align 8
  %74 = getelementptr inbounds %struct.cf_socket_ctx, ptr %73, i32 0, i32 10
  call void @llvm.memcpy.p0.p0.i64(ptr align 8 %72, ptr align 8 %74, i64 16, i1 false)
  br label %80

75:                                               ; preds = %64
  br label %76

76:                                               ; preds = %75, %59
  %77 = load ptr, ptr %14, align 8
  %78 = load ptr, ptr %12, align 8
  %79 = getelementptr inbounds %struct.cf_socket_ctx, ptr %78, i32 0, i32 9
  call void @llvm.memcpy.p0.p0.i64(ptr align 8 %77, ptr align 8 %79, i64 16, i1 false)
  br label %80

80:                                               ; preds = %76, %71
  store i32 0, ptr %6, align 4
  br label %106

81:                                               ; preds = %5
  br label %82

82:                                               ; preds = %81
  %83 = load ptr, ptr %7, align 8
  %84 = getelementptr inbounds %struct.Curl_cfilter, ptr %83, i32 0, i32 1
  %85 = load ptr, ptr %84, align 8
  %86 = icmp ne ptr %85, null
  br i1 %86, label %87, label %103

87:                                               ; preds = %82
  %88 = load ptr, ptr %7, align 8
  %89 = getelementptr inbounds %struct.Curl_cfilter, ptr %88, i32 0, i32 1
  %90 = load ptr, ptr %89, align 8
  %91 = getelementptr inbounds %struct.Curl_cfilter, ptr %90, i32 0, i32 0
  %92 = load ptr, ptr %91, align 8
  %93 = getelementptr inbounds %struct.Curl_cftype, ptr %92, i32 0, i32 14
  %94 = load ptr, ptr %93, align 8
  %95 = load ptr, ptr %7, align 8
  %96 = getelementptr inbounds %struct.Curl_cfilter, ptr %95, i32 0, i32 1
  %97 = load ptr, ptr %96, align 8
  %98 = load ptr, ptr %8, align 8
  %99 = load i32, ptr %9, align 4
  %100 = load ptr, ptr %10, align 8
  %101 = load ptr, ptr %11, align 8
  %102 = call i32 %94(ptr noundef %97, ptr noundef %98, i32 noundef %99, ptr noundef %100, ptr noundef %101)
  br label %104

103:                                              ; preds = %82
  br label %104

104:                                              ; preds = %103, %87
  %105 = phi i32 [ %102, %87 ], [ 48, %103 ]
  store i32 %105, ptr %6, align 4
  br label %106

106:                                              ; preds = %104, %80, %58, %21
  %107 = load i32, ptr %6, align 4
  ret i32 %107
}