; Function Attrs: nounwind uwtable
define internal i32 @cf_socket_query(ptr noundef readonly captures(none) %0, ptr noundef %1, i32 noundef %2, ptr noundef %3, ptr noundef %4) #2 {
  %6 = getelementptr inbounds nuw i8, ptr %0, i64 16
  %7 = load ptr, ptr %6, align 8
  switch i32 %2, label %39 [
    i32 3, label %8
    i32 2, label %11
    i32 4, label %28
  ]

8:                                                ; preds = %5
  %9 = getelementptr inbounds nuw i8, ptr %7, i64 152
  %10 = load i32, ptr %9, align 8
  store i32 %10, ptr %4, align 4
  br label %47

11:                                               ; preds = %5
  %12 = getelementptr inbounds nuw i8, ptr %7, i64 380
  %13 = load i8, ptr %12, align 4
  %14 = and i8 %13, 1
  %.not26 = icmp eq i8 %14, 0
  br i1 %.not26, label %27, label %15

15:                                               ; preds = %11
  %16 = getelementptr inbounds nuw i8, ptr %7, i64 360
  %17 = getelementptr inbounds nuw i8, ptr %7, i64 328
  %18 = load i64, ptr %16, align 8
  %19 = getelementptr inbounds nuw i8, ptr %7, i64 368
  %20 = load i32, ptr %19, align 8
  %21 = load i64, ptr %17, align 8
  %22 = getelementptr inbounds nuw i8, ptr %7, i64 336
  %23 = load i32, ptr %22, align 8
  %24 = tail call i64 @Curl_timediff(i64 %18, i32 %20, i64 %21, i32 %23) #13
  %25 = tail call i64 @llvm.smin.i64(i64 %24, i64 2147483647)
  %26 = trunc i64 %25 to i32
  br label %27

27:                                               ; preds = %11, %15
  %storemerge = phi i32 [ %26, %15 ], [ -1, %11 ]
  store i32 %storemerge, ptr %3, align 4
  br label %47

28:                                               ; preds = %5
  %29 = load i32, ptr %7, align 8
  %30 = and i32 %29, -2
  %switch = icmp eq i32 %30, 4
  br i1 %switch, label %31, label %37

31:                                               ; preds = %28
  %32 = getelementptr inbounds nuw i8, ptr %7, i64 380
  %33 = load i8, ptr %32, align 4
  %34 = and i8 %33, 1
  %.not = icmp eq i8 %34, 0
  br i1 %.not, label %37, label %35

35:                                               ; preds = %31
  %36 = getelementptr inbounds nuw i8, ptr %7, i64 360
  tail call void @llvm.memcpy.p0.p0.i64(ptr noundef nonnull align 8 dereferenceable(16) %4, ptr noundef nonnull align 8 dereferenceable(16) %36, i64 16, i1 false)
  br label %47

37:                                               ; preds = %28, %31
  %38 = getelementptr inbounds nuw i8, ptr %7, i64 344
  tail call void @llvm.memcpy.p0.p0.i64(ptr noundef nonnull align 8 dereferenceable(16) %4, ptr noundef nonnull align 8 dereferenceable(16) %38, i64 16, i1 false)
  br label %47

39:                                               ; preds = %5
  %40 = getelementptr inbounds nuw i8, ptr %0, i64 8
  %41 = load ptr, ptr %40, align 8
  %.not27 = icmp eq ptr %41, null
  br i1 %.not27, label %47, label %42

42:                                               ; preds = %39
  %43 = load ptr, ptr %41, align 8
  %44 = getelementptr inbounds nuw i8, ptr %43, i64 104
  %45 = load ptr, ptr %44, align 8
  %46 = tail call i32 %45(ptr noundef nonnull %41, ptr noundef %1, i32 noundef %2, ptr noundef %3, ptr noundef %4) #13
  br label %47

47:                                               ; preds = %42, %39, %35, %37, %27, %8
  %.0 = phi i32 [ 0, %27 ], [ 0, %8 ], [ 0, %37 ], [ 0, %35 ], [ %46, %42 ], [ 48, %39 ]
  ret i32 %.0
}